target datalayout = "e-m:e-p270:32:32-p271:32:32-p272:64:64-i64:64-i128:128-f80:128-n8:16:32:64-S128"
target triple = "x86_64-pc-linux-gnu"

%struct.ForEachState = type { ptr, i32 }
%struct.Query = type { i32, i32, i32, i64, i8, ptr, i32, i8, i8, i8, i8, i8, i8, i8, i8, i8, i8, i8, ptr, ptr, ptr, ptr, ptr, i32, ptr, ptr, i32, ptr, ptr, ptr, ptr, ptr, i8, ptr, ptr, ptr, ptr, ptr, ptr, ptr, i32, ptr, ptr, ptr, ptr, i32, i32 }
%struct.List = type { i32, i32, i32, ptr, [0 x %union.ListCell] }
%union.ListCell = type { ptr }

; Function Attrs: nounwind uwtable
define dso_local ptr @QueryRewrite(ptr noundef %0) #0 {
  %2 = alloca ptr, align 8
  %3 = alloca i64, align 8
  %4 = alloca ptr, align 8
  %5 = alloca ptr, align 8
  %6 = alloca ptr, align 8
  %7 = alloca i32, align 4
  %8 = alloca i8, align 1
  %9 = alloca ptr, align 8
  %10 = alloca %struct.ForEachState, align 8
  %11 = alloca ptr, align 8
  %12 = alloca %struct.ForEachState, align 8
  %13 = alloca i32, align 4
  %14 = alloca ptr, align 8
  store ptr %0, ptr %2, align 8
  call void @llvm.lifetime.start.p0(i64 8, ptr %3) #9
  %15 = load ptr, ptr %2, align 8
  %16 = getelementptr inbounds nuw %struct.Query, ptr %15, i32 0, i32 3
  %17 = load i64, ptr %16, align 8
  store i64 %17, ptr %3, align 8
  call void @llvm.lifetime.start.p0(i64 8, ptr %4) #9
  call void @llvm.lifetime.start.p0(i64 8, ptr %5) #9
  call void @llvm.lifetime.start.p0(i64 8, ptr %6) #9
  call void @llvm.lifetime.start.p0(i64 4, ptr %7) #9
  call void @llvm.lifetime.start.p0(i64 1, ptr %8) #9
  call void @llvm.lifetime.start.p0(i64 8, ptr %9) #9
  %18 = load ptr, ptr %2, align 8
  %19 = call ptr @RewriteQuery(ptr noundef %18, ptr noundef null, i32 noundef 0)
  store ptr %19, ptr %4, align 8
  store ptr null, ptr %5, align 8
  call void @llvm.lifetime.start.p0(i64 16, ptr %10) #9
  %20 = getelementptr inbounds nuw %struct.ForEachState, ptr %10, i32 0, i32 0
  %21 = load ptr, ptr %4, align 8
  store ptr %21, ptr %20, align 8
  %22 = getelementptr inbounds nuw %struct.ForEachState, ptr %10, i32 0, i32 1
  store i32 0, ptr %22, align 8
  %23 = getelementptr i8, ptr %10, i64 12
  call void @llvm.memset.p0.i64(ptr align 4 %23, i8 0, i64 4, i1 false)
  br label %24

24:                                               ; preds = %61, %1
  %25 = getelementptr inbounds nuw %struct.ForEachState, ptr %10, i32 0, i32 0
  %26 = load ptr, ptr %25, align 8
  %27 = icmp ne ptr %26, null
  br i1 %27, label %28, label %45

28:                                               ; preds = %24
  %29 = getelementptr inbounds nuw %struct.ForEachState, ptr %10, i32 0, i32 1
  %30 = load i32, ptr %29, align 8
  %31 = getelementptr inbounds nuw %struct.ForEachState, ptr %10, i32 0, i32 0
  %32 = load ptr, ptr %31, align 8
  %33 = getelementptr inbounds nuw %struct.List, ptr %32, i32 0, i32 1
  %34 = load i32, ptr %33, align 4
  %35 = icmp slt i32 %30, %34
  br i1 %35, label %36, label %45

36:                                               ; preds = %28
  %37 = getelementptr inbounds nuw %struct.ForEachState, ptr %10, i32 0, i32 0
  %38 = load ptr, ptr %37, align 8
  %39 = getelementptr inbounds nuw %struct.List, ptr %38, i32 0, i32 3
  %40 = load ptr, ptr %39, align 8
  %41 = getelementptr inbounds nuw %struct.ForEachState, ptr %10, i32 0, i32 1
  %42 = load i32, ptr %41, align 8
  %43 = sext i32 %42 to i64
  %44 = getelementptr inbounds %union.ListCell, ptr %40, i64 %43
  store ptr %44, ptr %6, align 8
  br label %46

45:                                               ; preds = %28, %24
  store ptr null, ptr %6, align 8
  br label %46

46:                                               ; preds = %45, %36
  %47 = phi i32 [ 1, %36 ], [ 0, %45 ]
  %48 = icmp ne i32 %47, 0
  br i1 %48, label %50, label %49

49:                                               ; preds = %46
  call void @llvm.lifetime.end.p0(i64 16, ptr %10) #9
  br label %65

50:                                               ; preds = %46
  call void @llvm.lifetime.start.p0(i64 8, ptr %11) #9
  %51 = load ptr, ptr %6, align 8
  %52 = load ptr, ptr %51, align 8
  store ptr %52, ptr %11, align 8
  %53 = load ptr, ptr %11, align 8
  %54 = call ptr @fireRIRrules(ptr noundef %53, ptr noundef null)
  store ptr %54, ptr %11, align 8
  %55 = load i64, ptr %3, align 8
  %56 = load ptr, ptr %11, align 8
  %57 = getelementptr inbounds nuw %struct.Query, ptr %56, i32 0, i32 3
  store i64 %55, ptr %57, align 8
  %58 = load ptr, ptr %5, align 8
  %59 = load ptr, ptr %11, align 8
  %60 = call ptr @lappend(ptr noundef %58, ptr noundef %59)
  store ptr %60, ptr %5, align 8
  call void @llvm.lifetime.end.p0(i64 8, ptr %11) #9
  br label %61

61:                                               ; preds = %50
  %62 = getelementptr inbounds nuw %struct.ForEachState, ptr %10, i32 0, i32 1
  %63 = load i32, ptr %62, align 8
  %64 = add i32 %63, 1
  store i32 %64, ptr %62, align 8
  br label %24, !llvm.loop !21

65:                                               ; preds = %49
  %66 = load ptr, ptr %2, align 8
  %67 = getelementptr inbounds nuw %struct.Query, ptr %66, i32 0, i32 1
  %68 = load i32, ptr %67, align 4
  store i32 %68, ptr %7, align 4
  store i8 0, ptr %8, align 1
  store ptr null, ptr %9, align 8
  call void @llvm.lifetime.start.p0(i64 16, ptr %12) #9
  %69 = getelementptr inbounds nuw %struct.ForEachState, ptr %12, i32 0, i32 0
  %70 = load ptr, ptr %5, align 8
  store ptr %70, ptr %69, align 8
  %71 = getelementptr inbounds nuw %struct.ForEachState, ptr %12, i32 0, i32 1
  store i32 0, ptr %71, align 8
  %72 = getelementptr i8, ptr %12, i64 12
  call void @llvm.memset.p0.i64(ptr align 4 %72, i8 0, i64 4, i1 false)
  br label %73

73:                                               ; preds = %130, %65
  %74 = getelementptr inbounds nuw %struct.ForEachState, ptr %12, i32 0, i32 0
  %75 = load ptr, ptr %74, align 8
  %76 = icmp ne ptr %75, null
  br i1 %76, label %77, label %94

77:                                               ; preds = %73
  %78 = getelementptr inbounds nuw %struct.ForEachState, ptr %12, i32 0, i32 1
  %79 = load i32, ptr %78, align 8
  %80 = getelementptr inbounds nuw %struct.ForEachState, ptr %12, i32 0, i32 0
  %81 = load ptr, ptr %80, align 8
  %82 = getelementptr inbounds nuw %struct.List, ptr %81, i32 0, i32 1
  %83 = load i32, ptr %82, align 4
  %84 = icmp slt i32 %79, %83
  br i1 %84, label %85, label %94

85:                                               ; preds = %77
  %86 = getelementptr inbounds nuw %struct.ForEachState, ptr %12, i32 0, i32 0
  %87 = load ptr, ptr %86, align 8
  %88 = getelementptr inbounds nuw %struct.List, ptr %87, i32 0, i32 3
  %89 = load ptr, ptr %88, align 8
  %90 = getelementptr inbounds nuw %struct.ForEachState, ptr %12, i32 0, i32 1
  %91 = load i32, ptr %90, align 8
  %92 = sext i32 %91 to i64
  %93 = getelementptr inbounds %union.ListCell, ptr %89, i64 %92
  store ptr %93, ptr %6, align 8
  br label %95

94:                                               ; preds = %77, %73
  store ptr null, ptr %6, align 8
  br label %95

95:                                               ; preds = %94, %85
  %96 = phi i32 [ 1, %85 ], [ 0, %94 ]
  %97 = icmp ne i32 %96, 0
  br i1 %97, label %99, label %98

98:                                               ; preds = %95
  store i32 5, ptr %13, align 4
  br label %134

99:                                               ; preds = %95
  call void @llvm.lifetime.start.p0(i64 8, ptr %14) #9
  %100 = load ptr, ptr %6, align 8
  %101 = load ptr, ptr %100, align 8
  store ptr %101, ptr %14, align 8
  %102 = load ptr, ptr %14, align 8
  %103 = getelementptr inbounds nuw %struct.Query, ptr %102, i32 0, i32 2
  %104 = load i32, ptr %103, align 8
  %105 = icmp eq i32 %104, 0
  br i1 %105, label %106, label %107

106:                                              ; preds = %99
  store i8 1, ptr %8, align 1
  store i32 5, ptr %13, align 4
  br label %127

107:                                              ; preds = %99
  %108 = load ptr, ptr %14, align 8
  %109 = getelementptr inbounds nuw %struct.Query, ptr %108, i32 0, i32 1
  %110 = load i32, ptr %109, align 4
  %111 = load i32, ptr %7, align 4
  %112 = icmp eq i32 %110, %111
  br i1 %112, label %113, label %125

113:                                              ; preds = %107
  %114 = load ptr, ptr %14, align 8
  %115 = getelementptr inbounds nuw %struct.Query, ptr %114, i32 0, i32 2
  %116 = load i32, ptr %115, align 8
  %117 = icmp eq i32 %116, 2
  br i1 %117, label %123, label %118

118:                                              ; preds = %113
  %119 = load ptr, ptr %14, align 8
  %120 = getelementptr inbounds nuw %struct.Query, ptr %119, i32 0, i32 2
  %121 = load i32, ptr %120, align 8
  %122 = icmp eq i32 %121, 3
  br i1 %122, label %123, label %125

123:                                              ; preds = %118, %113
  %124 = load ptr, ptr %14, align 8
  store ptr %124, ptr %9, align 8
  br label %125

125:                                              ; preds = %123, %118, %107
  br label %126

126:                                              ; preds = %125
  store i32 0, ptr %13, align 4
  br label %127

127:                                              ; preds = %126, %106
  call void @llvm.lifetime.end.p0(i64 8, ptr %14) #9
  %128 = load i32, ptr %13, align 4
  switch i32 %128, label %134 [
    i32 0, label %129
  ]

129:                                              ; preds = %127
  br label %130

130:                                              ; preds = %129
  %131 = getelementptr inbounds nuw %struct.ForEachState, ptr %12, i32 0, i32 1
  %132 = load i32, ptr %131, align 8
  %133 = add i32 %132, 1
  store i32 %133, ptr %131, align 8
  br label %73, !llvm.loop !22

134:                                              ; preds = %127, %98
  call void @llvm.lifetime.end.p0(i64 16, ptr %12) #9
  br label %135

135:                                              ; preds = %134
  %136 = load i8, ptr %8, align 1, !range !4, !noundef !5
  %137 = trunc i8 %136 to i1
  br i1 %137, label %144, label %138

138:                                              ; preds = %135
  %139 = load ptr, ptr %9, align 8
  %140 = icmp ne ptr %139, null
  br i1 %140, label %141, label %144

141:                                              ; preds = %138
  %142 = load ptr, ptr %9, align 8
  %143 = getelementptr inbounds nuw %struct.Query, ptr %142, i32 0, i32 4
  store i8 1, ptr %143, align 8
  br label %144

144:                                              ; preds = %141, %138, %135
  %145 = load ptr, ptr %5, align 8
  store i32 1, ptr %13, align 4
  call void @llvm.lifetime.end.p0(i64 8, ptr %9) #9
  call void @llvm.lifetime.end.p0(i64 1, ptr %8) #9
  call void @llvm.lifetime.end.p0(i64 4, ptr %7) #9
  call void @llvm.lifetime.end.p0(i64 8, ptr %6) #9
  call void @llvm.lifetime.end.p0(i64 8, ptr %5) #9
  call void @llvm.lifetime.end.p0(i64 8, ptr %4) #9
  call void @llvm.lifetime.end.p0(i64 8, ptr %3) #9
  ret ptr %145
}