; Function Attrs: nounwind uwtable
define dso_local ptr @QueryRewrite(ptr noundef %0) local_unnamed_addr #0 {
  %2 = getelementptr inbounds nuw i8, ptr %0, i64 16
  %3 = load i64, ptr %2, align 8
  %4 = tail call fastcc ptr @RewriteQuery(ptr noundef %0, ptr noundef null, i32 noundef 0)
  %5 = getelementptr inbounds nuw i8, ptr %4, i64 4
  %.not43 = icmp eq ptr %4, null
  br i1 %.not43, label %.thread58, label %.lr.ph

.lr.ph:                                           ; preds = %1
  %6 = getelementptr inbounds nuw i8, ptr %4, i64 16
  %7 = load i32, ptr %5, align 4
  %8 = icmp sgt i32 %7, 0
  br i1 %8, label %.lr.ph69, label %.thread58

._crit_edge:                                      ; preds = %.lr.ph69
  %9 = getelementptr inbounds nuw i8, ptr %0, i64 4
  %10 = load i32, ptr %9, align 4
  %.not45 = icmp eq ptr %21, null
  br i1 %.not45, label %.thread58, label %.lr.ph74

.lr.ph74:                                         ; preds = %._crit_edge
  %11 = getelementptr inbounds nuw i8, ptr %21, i64 4
  %12 = load i32, ptr %11, align 4
  %13 = icmp sgt i32 %12, 0
  br i1 %13, label %.lr.ph83, label %.thread58

.lr.ph83:                                         ; preds = %.lr.ph74
  %14 = getelementptr inbounds nuw i8, ptr %21, i64 16
  %15 = load ptr, ptr %14, align 8
  %wide.trip.count = zext nneg i32 %12 to i64
  br label %25

.lr.ph69:                                         ; preds = %.lr.ph, %.lr.ph69
  %indvars.iv = phi i64 [ %indvars.iv.next, %.lr.ph69 ], [ 0, %.lr.ph ]
  %.06367 = phi ptr [ %21, %.lr.ph69 ], [ null, %.lr.ph ]
  %16 = load ptr, ptr %6, align 8
  %17 = getelementptr inbounds nuw %union.ListCell, ptr %16, i64 %indvars.iv
  %18 = load ptr, ptr %17, align 8
  %19 = tail call fastcc ptr @fireRIRrules(ptr noundef %18, ptr noundef null)
  %20 = getelementptr inbounds nuw i8, ptr %19, i64 16
  store i64 %3, ptr %20, align 8
  %21 = tail call ptr @lappend(ptr noundef %.06367, ptr noundef %19) #10
  %indvars.iv.next = add nuw nsw i64 %indvars.iv, 1
  %22 = load i32, ptr %5, align 4
  %23 = sext i32 %22 to i64
  %24 = icmp slt i64 %indvars.iv.next, %23
  br i1 %24, label %.lr.ph69, label %._crit_edge

25:                                               ; preds = %.lr.ph83, %30
  %indvars.iv86 = phi i64 [ 0, %.lr.ph83 ], [ %indvars.iv.next87, %30 ]
  %.0387182 = phi ptr [ null, %.lr.ph83 ], [ %spec.select, %30 ]
  %26 = getelementptr inbounds nuw %union.ListCell, ptr %15, i64 %indvars.iv86
  %27 = load ptr, ptr %26, align 8
  %28 = getelementptr inbounds nuw i8, ptr %27, i64 8
  %29 = load i32, ptr %28, align 8
  %.not47 = icmp eq i32 %29, 0
  br i1 %.not47, label %.thread58, label %30

30:                                               ; preds = %25
  %31 = getelementptr inbounds nuw i8, ptr %27, i64 4
  %32 = load i32, ptr %31, align 4
  %33 = icmp eq i32 %32, %10
  %34 = and i32 %29, -2
  %switch = icmp eq i32 %34, 2
  %or.cond = and i1 %switch, %33
  %spec.select = select i1 %or.cond, ptr %27, ptr %.0387182
  %indvars.iv.next87 = add nuw nsw i64 %indvars.iv86, 1
  %exitcond.not = icmp eq i64 %indvars.iv.next87, %wide.trip.count
  br i1 %exitcond.not, label %._crit_edge75, label %25

._crit_edge75:                                    ; preds = %30
  %35 = icmp eq ptr %spec.select, null
  br i1 %35, label %.thread58, label %36

36:                                               ; preds = %._crit_edge75
  %37 = getelementptr inbounds nuw i8, ptr %spec.select, i64 24
  store i8 1, ptr %37, align 8
  br label %.thread58

.thread58:                                        ; preds = %25, %.lr.ph, %1, %.lr.ph74, %._crit_edge, %36, %._crit_edge75
  %.0.lcssa91 = phi ptr [ %21, %36 ], [ %21, %._crit_edge75 ], [ %21, %.lr.ph74 ], [ null, %._crit_edge ], [ null, %1 ], [ null, %.lr.ph ], [ %21, %25 ]
  ret ptr %.0.lcssa91
}